target datalayout = "e-m:e-p270:32:32-p271:32:32-p272:64:64-i64:64-i128:128-f80:128-n8:16:32:64-S128"
target triple = "x86_64-pc-linux-gnu"

; Function Attrs: mustprogress uwtable
define hidden noundef zeroext i1 @_ZN11OpenImageIO6v3_1_09HdrOutput19RGBE_WriteBytes_RLEEPhi(ptr noundef nonnull align 8 dereferenceable(232) %0, ptr noundef %1, i32 noundef %2) #6 align 2 {
  %4 = alloca i1, align 1
  %5 = alloca ptr, align 8
  %6 = alloca ptr, align 8
  %7 = alloca i32, align 4
  %8 = alloca i32, align 4
  %9 = alloca i32, align 4
  %10 = alloca i32, align 4
  %11 = alloca i32, align 4
  %12 = alloca i32, align 4
  %13 = alloca [2 x i8], align 1
  %14 = alloca i32, align 4
  store ptr %0, ptr %5, align 8, !tbaa !8
  store ptr %1, ptr %6, align 8, !tbaa !12
  store i32 %2, ptr %7, align 4, !tbaa !14
  %15 = load ptr, ptr %5, align 8
  call void @llvm.lifetime.start.p0(i64 4, ptr %8) #3
  call void @llvm.lifetime.start.p0(i64 4, ptr %9) #3
  call void @llvm.lifetime.start.p0(i64 4, ptr %10) #3
  call void @llvm.lifetime.start.p0(i64 4, ptr %11) #3
  call void @llvm.lifetime.start.p0(i64 4, ptr %12) #3
  call void @llvm.lifetime.start.p0(i64 2, ptr %13) #3
  store i32 0, ptr %8, align 4, !tbaa !14
  br label %16

16:                                               ; preds = %145, %3
  %17 = load i32, ptr %8, align 4, !tbaa !14
  %18 = load i32, ptr %7, align 4, !tbaa !14
  %19 = icmp slt i32 %17, %18
  br i1 %19, label %20, label %146

20:                                               ; preds = %16
  %21 = load i32, ptr %8, align 4, !tbaa !14
  store i32 %21, ptr %9, align 4, !tbaa !14
  store i32 0, ptr %11, align 4, !tbaa !14
  store i32 0, ptr %10, align 4, !tbaa !14
  br label %22

22:                                               ; preds = %66, %20
  %23 = load i32, ptr %10, align 4, !tbaa !14
  %24 = icmp slt i32 %23, 4
  br i1 %24, label %25, label %29

25:                                               ; preds = %22
  %26 = load i32, ptr %9, align 4, !tbaa !14
  %27 = load i32, ptr %7, align 4, !tbaa !14
  %28 = icmp slt i32 %26, %27
  br label %29

29:                                               ; preds = %25, %22
  %30 = phi i1 [ false, %22 ], [ %28, %25 ]
  br i1 %30, label %31, label %67

31:                                               ; preds = %29
  %32 = load i32, ptr %10, align 4, !tbaa !14
  %33 = load i32, ptr %9, align 4, !tbaa !14
  %34 = add nsw i32 %33, %32
  store i32 %34, ptr %9, align 4, !tbaa !14
  %35 = load i32, ptr %10, align 4, !tbaa !14
  store i32 %35, ptr %11, align 4, !tbaa !14
  store i32 1, ptr %10, align 4, !tbaa !14
  br label %36

36:                                               ; preds = %63, %31
  %37 = load i32, ptr %9, align 4, !tbaa !14
  %38 = load i32, ptr %10, align 4, !tbaa !14
  %39 = add nsw i32 %37, %38
  %40 = load i32, ptr %7, align 4, !tbaa !14
  %41 = icmp slt i32 %39, %40
  br i1 %41, label %42, label %61

42:                                               ; preds = %36
  %43 = load i32, ptr %10, align 4, !tbaa !14
  %44 = icmp slt i32 %43, 127
  br i1 %44, label %45, label %61

45:                                               ; preds = %42
  %46 = load ptr, ptr %6, align 8, !tbaa !12
  %47 = load i32, ptr %9, align 4, !tbaa !14
  %48 = sext i32 %47 to i64
  %49 = getelementptr inbounds i8, ptr %46, i64 %48
  %50 = load i8, ptr %49, align 1, !tbaa !16
  %51 = zext i8 %50 to i32
  %52 = load ptr, ptr %6, align 8, !tbaa !12
  %53 = load i32, ptr %9, align 4, !tbaa !14
  %54 = load i32, ptr %10, align 4, !tbaa !14
  %55 = add nsw i32 %53, %54
  %56 = sext i32 %55 to i64
  %57 = getelementptr inbounds i8, ptr %52, i64 %56
  %58 = load i8, ptr %57, align 1, !tbaa !16
  %59 = zext i8 %58 to i32
  %60 = icmp eq i32 %51, %59
  br label %61

61:                                               ; preds = %45, %42, %36
  %62 = phi i1 [ false, %42 ], [ false, %36 ], [ %60, %45 ]
  br i1 %62, label %63, label %66

63:                                               ; preds = %61
  %64 = load i32, ptr %10, align 4, !tbaa !14
  %65 = add nsw i32 %64, 1
  store i32 %65, ptr %10, align 4, !tbaa !14
  br label %36, !llvm.loop !17

66:                                               ; preds = %61
  br label %22, !llvm.loop !19

67:                                               ; preds = %29
  %68 = load i32, ptr %11, align 4, !tbaa !14
  %69 = icmp sgt i32 %68, 1
  br i1 %69, label %70, label %92

70:                                               ; preds = %67
  %71 = load i32, ptr %11, align 4, !tbaa !14
  %72 = load i32, ptr %9, align 4, !tbaa !14
  %73 = load i32, ptr %8, align 4, !tbaa !14
  %74 = sub nsw i32 %72, %73
  %75 = icmp eq i32 %71, %74
  br i1 %75, label %76, label %92

76:                                               ; preds = %70
  %77 = load i32, ptr %11, align 4, !tbaa !14
  %78 = add nsw i32 128, %77
  %79 = trunc i32 %78 to i8
  %80 = getelementptr inbounds [2 x i8], ptr %13, i64 0, i64 0
  store i8 %79, ptr %80, align 1, !tbaa !16
  %81 = load ptr, ptr %6, align 8, !tbaa !12
  %82 = load i32, ptr %8, align 4, !tbaa !14
  %83 = sext i32 %82 to i64
  %84 = getelementptr inbounds i8, ptr %81, i64 %83
  %85 = load i8, ptr %84, align 1, !tbaa !16
  %86 = getelementptr inbounds [2 x i8], ptr %13, i64 0, i64 1
  store i8 %85, ptr %86, align 1, !tbaa !16
  %87 = getelementptr inbounds [2 x i8], ptr %13, i64 0, i64 0
  %88 = call noundef zeroext i1 @_ZN11OpenImageIO6v3_1_011ImageOutput7iowriteEPKvmm(ptr noundef nonnull align 8 dereferenceable(184) %15, ptr noundef %87, i64 noundef 2, i64 noundef 1)
  br i1 %88, label %90, label %89

89:                                               ; preds = %76
  store i1 false, ptr %4, align 1
  store i32 1, ptr %14, align 4
  br label %147

90:                                               ; preds = %76
  %91 = load i32, ptr %9, align 4, !tbaa !14
  store i32 %91, ptr %8, align 4, !tbaa !14
  br label %92

92:                                               ; preds = %90, %70, %67
  br label %93

93:                                               ; preds = %120, %92
  %94 = load i32, ptr %8, align 4, !tbaa !14
  %95 = load i32, ptr %9, align 4, !tbaa !14
  %96 = icmp slt i32 %94, %95
  br i1 %96, label %97, label %124

97:                                               ; preds = %93
  %98 = load i32, ptr %9, align 4, !tbaa !14
  %99 = load i32, ptr %8, align 4, !tbaa !14
  %100 = sub nsw i32 %98, %99
  store i32 %100, ptr %12, align 4, !tbaa !14
  %101 = load i32, ptr %12, align 4, !tbaa !14
  %102 = icmp sgt i32 %101, 128
  br i1 %102, label %103, label %104

103:                                              ; preds = %97
  store i32 128, ptr %12, align 4, !tbaa !14
  br label %104

104:                                              ; preds = %103, %97
  %105 = load i32, ptr %12, align 4, !tbaa !14
  %106 = trunc i32 %105 to i8
  %107 = getelementptr inbounds [2 x i8], ptr %13, i64 0, i64 0
  store i8 %106, ptr %107, align 1, !tbaa !16
  %108 = getelementptr inbounds [2 x i8], ptr %13, i64 0, i64 0
  %109 = call noundef zeroext i1 @_ZN11OpenImageIO6v3_1_011ImageOutput7iowriteEPKvmm(ptr noundef nonnull align 8 dereferenceable(184) %15, ptr noundef %108, i64 noundef 1, i64 noundef 1)
  br i1 %109, label %111, label %110

110:                                              ; preds = %104
  store i1 false, ptr %4, align 1
  store i32 1, ptr %14, align 4
  br label %147

111:                                              ; preds = %104
  %112 = load ptr, ptr %6, align 8, !tbaa !12
  %113 = load i32, ptr %8, align 4, !tbaa !14
  %114 = sext i32 %113 to i64
  %115 = getelementptr inbounds i8, ptr %112, i64 %114
  %116 = load i32, ptr %12, align 4, !tbaa !14
  %117 = sext i32 %116 to i64
  %118 = call noundef zeroext i1 @_ZN11OpenImageIO6v3_1_011ImageOutput7iowriteEPKvmm(ptr noundef nonnull align 8 dereferenceable(184) %15, ptr noundef %115, i64 noundef %117, i64 noundef 1)
  br i1 %118, label %120, label %119

119:                                              ; preds = %111
  store i1 false, ptr %4, align 1
  store i32 1, ptr %14, align 4
  br label %147

120:                                              ; preds = %111
  %121 = load i32, ptr %12, align 4, !tbaa !14
  %122 = load i32, ptr %8, align 4, !tbaa !14
  %123 = add nsw i32 %122, %121
  store i32 %123, ptr %8, align 4, !tbaa !14
  br label %93, !llvm.loop !20

124:                                              ; preds = %93
  %125 = load i32, ptr %10, align 4, !tbaa !14
  %126 = icmp sge i32 %125, 4
  br i1 %126, label %127, label %145

127:                                              ; preds = %124
  %128 = load i32, ptr %10, align 4, !tbaa !14
  %129 = add nsw i32 128, %128
  %130 = trunc i32 %129 to i8
  %131 = getelementptr inbounds [2 x i8], ptr %13, i64 0, i64 0
  store i8 %130, ptr %131, align 1, !tbaa !16
  %132 = load ptr, ptr %6, align 8, !tbaa !12
  %133 = load i32, ptr %9, align 4, !tbaa !14
  %134 = sext i32 %133 to i64
  %135 = getelementptr inbounds i8, ptr %132, i64 %134
  %136 = load i8, ptr %135, align 1, !tbaa !16
  %137 = getelementptr inbounds [2 x i8], ptr %13, i64 0, i64 1
  store i8 %136, ptr %137, align 1, !tbaa !16
  %138 = getelementptr inbounds [2 x i8], ptr %13, i64 0, i64 0
  %139 = call noundef zeroext i1 @_ZN11OpenImageIO6v3_1_011ImageOutput7iowriteEPKvmm(ptr noundef nonnull align 8 dereferenceable(184) %15, ptr noundef %138, i64 noundef 2, i64 noundef 1)
  br i1 %139, label %141, label %140

140:                                              ; preds = %127
  store i1 false, ptr %4, align 1
  store i32 1, ptr %14, align 4
  br label %147

141:                                              ; preds = %127
  %142 = load i32, ptr %10, align 4, !tbaa !14
  %143 = load i32, ptr %8, align 4, !tbaa !14
  %144 = add nsw i32 %143, %142
  store i32 %144, ptr %8, align 4, !tbaa !14
  br label %145

145:                                              ; preds = %141, %124
  br label %16, !llvm.loop !21

146:                                              ; preds = %16
  store i1 true, ptr %4, align 1
  store i32 1, ptr %14, align 4
  br label %147

147:                                              ; preds = %146, %140, %119, %110, %89
  call void @llvm.lifetime.end.p0(i64 2, ptr %13) #3
  call void @llvm.lifetime.end.p0(i64 4, ptr %12) #3
  call void @llvm.lifetime.end.p0(i64 4, ptr %11) #3
  call void @llvm.lifetime.end.p0(i64 4, ptr %10) #3
  call void @llvm.lifetime.end.p0(i64 4, ptr %9) #3
  call void @llvm.lifetime.end.p0(i64 4, ptr %8) #3
  %148 = load i1, ptr %4, align 1
  ret i1 %148
}