; Function Attrs: mustprogress uwtable
define hidden noundef zeroext i1 @_ZN11OpenImageIO6v3_1_09HdrOutput19RGBE_WriteBytes_RLEEPhi(ptr noundef nonnull align 8 dereferenceable(232) %0, ptr noundef %1, i32 noundef %2) local_unnamed_addr #5 align 2 {
  %4 = alloca [2 x i8], align 1
  call void @llvm.lifetime.start.p0(i64 2, ptr nonnull %4) #25
  %5 = icmp slt i32 %2, 1
  br i1 %5, label %.loopexit, label %.preheader.lr.ph

.preheader.lr.ph:                                 ; preds = %3
  %6 = getelementptr inbounds nuw i8, ptr %4, i64 1
  %7 = zext nneg i32 %2 to i64
  br label %.preheader

.preheader:                                       ; preds = %.preheader.lr.ph, %63
  %.04866 = phi i32 [ 0, %.preheader.lr.ph ], [ %.3, %63 ]
  br label %8

8:                                                ; preds = %.preheader, %.critedge
  %.04662 = phi i32 [ 0, %.preheader ], [ %.1.lcssa, %.critedge ]
  %.04761 = phi i32 [ %.04866, %.preheader ], [ %9, %.critedge ]
  %9 = add nsw i32 %.04662, %.04761
  %10 = add nsw i32 %9, 1
  %11 = icmp slt i32 %10, %2
  br i1 %11, label %.lr.ph, label %.critedge

.lr.ph:                                           ; preds = %8
  %12 = sext i32 %9 to i64
  %13 = getelementptr inbounds i8, ptr %1, i64 %12
  %14 = load i8, ptr %13, align 1, !tbaa !12
  br label %15

15:                                               ; preds = %.lr.ph, %21
  %indvars.iv = phi i64 [ 1, %.lr.ph ], [ %indvars.iv.next, %21 ]
  %16 = phi i32 [ %10, %.lr.ph ], [ %25, %21 ]
  %17 = sext i32 %16 to i64
  %18 = getelementptr inbounds i8, ptr %1, i64 %17
  %19 = load i8, ptr %18, align 1, !tbaa !12
  %20 = icmp eq i8 %14, %19
  br i1 %20, label %21, label %.critedge.loopexit

21:                                               ; preds = %15
  %indvars.iv.next = add nuw nsw i64 %indvars.iv, 1
  %22 = add nsw i64 %indvars.iv.next, %12
  %23 = icmp slt i64 %22, %7
  %24 = icmp samesign ult i64 %indvars.iv, 126
  %or.cond = select i1 %23, i1 %24, i1 false
  %25 = trunc nsw i64 %22 to i32
  br i1 %or.cond, label %15, label %.critedge.loopexit, !llvm.loop !13

.critedge.loopexit:                               ; preds = %21, %15
  %.1.lcssa.ph.in = phi i64 [ %indvars.iv, %15 ], [ %indvars.iv.next, %21 ]
  %.1.lcssa.ph = trunc i64 %.1.lcssa.ph.in to i32
  br label %.critedge

.critedge:                                        ; preds = %.critedge.loopexit, %8
  %.1.lcssa = phi i32 [ 1, %8 ], [ %.1.lcssa.ph, %.critedge.loopexit ]
  %26 = icmp samesign ult i32 %.1.lcssa, 4
  %27 = icmp slt i32 %9, %2
  %28 = and i1 %27, %26
  br i1 %28, label %8, label %29, !llvm.loop !15

29:                                               ; preds = %.critedge
  %30 = icmp sgt i32 %.04662, 1
  %31 = sub nsw i32 %9, %.04866
  %32 = icmp eq i32 %.04662, %31
  %or.cond54 = select i1 %30, i1 %32, i1 false
  br i1 %or.cond54, label %33, label %40

33:                                               ; preds = %29
  %34 = trunc nuw i32 %.04662 to i8
  %35 = or disjoint i8 %34, -128
  store i8 %35, ptr %4, align 1, !tbaa !12
  %36 = sext i32 %.04866 to i64
  %37 = getelementptr inbounds i8, ptr %1, i64 %36
  %38 = load i8, ptr %37, align 1, !tbaa !12
  store i8 %38, ptr %6, align 1, !tbaa !12
  %39 = call noundef zeroext i1 @_ZN11OpenImageIO6v3_1_011ImageOutput7iowriteEPKvmm(ptr noundef nonnull align 8 dereferenceable(184) %0, ptr noundef nonnull %4, i64 noundef 2, i64 noundef 1)
  br i1 %39, label %._crit_edge, label %.loopexit

40:                                               ; preds = %29
  %41 = icmp slt i32 %.04866, %9
  br i1 %41, label %.lr.ph64, label %._crit_edge

42:                                               ; preds = %48
  %43 = add nsw i32 %spec.store.select, %.263
  %44 = icmp slt i32 %43, %9
  br i1 %44, label %.lr.ph64, label %._crit_edge, !llvm.loop !16

.lr.ph64:                                         ; preds = %40, %42
  %.263 = phi i32 [ %43, %42 ], [ %.04866, %40 ]
  %45 = sub nsw i32 %9, %.263
  %spec.store.select = call i32 @llvm.smin.i32(i32 %45, i32 128)
  %46 = trunc i32 %spec.store.select to i8
  store i8 %46, ptr %4, align 1, !tbaa !12
  %47 = call noundef zeroext i1 @_ZN11OpenImageIO6v3_1_011ImageOutput7iowriteEPKvmm(ptr noundef nonnull align 8 dereferenceable(184) %0, ptr noundef nonnull %4, i64 noundef 1, i64 noundef 1)
  br i1 %47, label %48, label %.loopexit

48:                                               ; preds = %.lr.ph64
  %49 = sext i32 %.263 to i64
  %50 = getelementptr inbounds i8, ptr %1, i64 %49
  %51 = sext i32 %spec.store.select to i64
  %52 = call noundef zeroext i1 @_ZN11OpenImageIO6v3_1_011ImageOutput7iowriteEPKvmm(ptr noundef nonnull align 8 dereferenceable(184) %0, ptr noundef %50, i64 noundef %51, i64 noundef 1)
  br i1 %52, label %42, label %.loopexit

._crit_edge:                                      ; preds = %42, %33, %40
  %.2.lcssa = phi i32 [ %.04866, %40 ], [ %9, %33 ], [ %43, %42 ]
  %53 = icmp samesign ugt i32 %.1.lcssa, 3
  br i1 %53, label %54, label %63

54:                                               ; preds = %._crit_edge
  %55 = trunc i32 %.1.lcssa to i8
  %56 = xor i8 %55, -128
  store i8 %56, ptr %4, align 1, !tbaa !12
  %57 = sext i32 %9 to i64
  %58 = getelementptr inbounds i8, ptr %1, i64 %57
  %59 = load i8, ptr %58, align 1, !tbaa !12
  store i8 %59, ptr %6, align 1, !tbaa !12
  %60 = call noundef zeroext i1 @_ZN11OpenImageIO6v3_1_011ImageOutput7iowriteEPKvmm(ptr noundef nonnull align 8 dereferenceable(184) %0, ptr noundef nonnull %4, i64 noundef 2, i64 noundef 1)
  br i1 %60, label %61, label %.loopexit

61:                                               ; preds = %54
  %62 = add nsw i32 %.2.lcssa, %.1.lcssa
  br label %63

63:                                               ; preds = %61, %._crit_edge
  %.3 = phi i32 [ %62, %61 ], [ %.2.lcssa, %._crit_edge ]
  %.not = icmp slt i32 %.3, %2
  br i1 %.not, label %.preheader, label %.loopexit, !llvm.loop !17

.loopexit:                                        ; preds = %33, %54, %63, %48, %.lr.ph64, %3
  %64 = phi i1 [ true, %3 ], [ false, %.lr.ph64 ], [ false, %48 ], [ false, %33 ], [ false, %54 ], [ true, %63 ]
  call void @llvm.lifetime.end.p0(i64 2, ptr nonnull %4) #25
  ret i1 %64
}